; ModuleID = '5/66.c'
source_filename = "5/66.c"
target datalayout = "e-m:e-p270:32:32-p271:32:32-p272:64:64-i64:64-f80:128-n8:16:32:64-S128"
target triple = "x86_64-pc-linux-gnu"

@.str = private unnamed_addr constant [4 x i8] c"%lf\00", align 1
@.str.1 = private unnamed_addr constant [3 x i8] c"%s\00", align 1
@.str.2 = private unnamed_addr constant [7 x i8] c"error\0A\00", align 1
@.str.3 = private unnamed_addr constant [5 x i8] c"yes\0A\00", align 1
@.str.4 = private unnamed_addr constant [4 x i8] c"no\0A\00", align 1

; Function Attrs: noinline nounwind uwtable
define dso_local i32 @main() #0 {
  %1 = alloca i32, align 4
  %2 = alloca i32, align 4
  %3 = alloca i32, align 4
  %4 = alloca double, align 8
  %5 = alloca double, align 8
  %6 = alloca double, align 8
  %7 = alloca double, align 8
  %8 = alloca [1000 x i8], align 16
  %9 = alloca [1000 x i8], align 16
  store i32 0, i32* %1, align 4
  store i32 1, i32* %3, align 4
  store double 0.000000e+00, double* %4, align 8
  %10 = call i32 (i8*, ...) @__isoc99_scanf(i8* getelementptr inbounds ([4 x i8], [4 x i8]* @.str, i64 0, i64 0), double* %7)
  %11 = getelementptr inbounds [1000 x i8], [1000 x i8]* %8, i64 0, i64 0
  %12 = call i32 (i8*, ...) @__isoc99_scanf(i8* getelementptr inbounds ([3 x i8], [3 x i8]* @.str.1, i64 0, i64 0), i8* %11)
  %13 = getelementptr inbounds [1000 x i8], [1000 x i8]* %9, i64 0, i64 0
  %14 = call i32 (i8*, ...) @__isoc99_scanf(i8* getelementptr inbounds ([3 x i8], [3 x i8]* @.str.1, i64 0, i64 0), i8* %13)
  %15 = getelementptr inbounds [1000 x i8], [1000 x i8]* %8, i64 0, i64 0
  %16 = call i64 @strlen(i8* %15) #3
  %17 = uitofp i64 %16 to double
  store double %17, double* %5, align 8
  store i32 0, i32* %2, align 4
  br label %18

18:                                               ; preds = %82, %0
  %19 = load i32, i32* %2, align 4
  %20 = sitofp i32 %19 to double
  %21 = load double, double* %5, align 8
  %22 = fcmp olt double %20, %21
  br i1 %22, label %23, label %85

23:                                               ; preds = %18
  %24 = load i32, i32* %2, align 4
  %25 = sext i32 %24 to i64
  %26 = getelementptr inbounds [1000 x i8], [1000 x i8]* %8, i64 0, i64 %25
  %27 = load i8, i8* %26, align 1
  %28 = sext i8 %27 to i32
  %29 = icmp ne i32 %28, 65
  br i1 %29, label %30, label %52

30:                                               ; preds = %23
  %31 = load i32, i32* %2, align 4
  %32 = sext i32 %31 to i64
  %33 = getelementptr inbounds [1000 x i8], [1000 x i8]* %8, i64 0, i64 %32
  %34 = load i8, i8* %33, align 1
  %35 = sext i8 %34 to i32
  %36 = icmp ne i32 %35, 84
  br i1 %36, label %37, label %52

37:                                               ; preds = %30
  %38 = load i32, i32* %2, align 4
  %39 = sext i32 %38 to i64
  %40 = getelementptr inbounds [1000 x i8], [1000 x i8]* %8, i64 0, i64 %39
  %41 = load i8, i8* %40, align 1
  %42 = sext i8 %41 to i32
  %43 = icmp ne i32 %42, 71
  br i1 %43, label %44, label %52

44:                                               ; preds = %37
  %45 = load i32, i32* %2, align 4
  %46 = sext i32 %45 to i64
  %47 = getelementptr inbounds [1000 x i8], [1000 x i8]* %8, i64 0, i64 %46
  %48 = load i8, i8* %47, align 1
  %49 = sext i8 %48 to i32
  %50 = icmp ne i32 %49, 67
  br i1 %50, label %51, label %52

51:                                               ; preds = %44
  store i32 0, i32* %3, align 4
  br label %52

52:                                               ; preds = %51, %44, %37, %30, %23
  %53 = load i32, i32* %2, align 4
  %54 = sext i32 %53 to i64
  %55 = getelementptr inbounds [1000 x i8], [1000 x i8]* %9, i64 0, i64 %54
  %56 = load i8, i8* %55, align 1
  %57 = sext i8 %56 to i32
  %58 = icmp ne i32 %57, 65
  br i1 %58, label %59, label %81

59:                                               ; preds = %52
  %60 = load i32, i32* %2, align 4
  %61 = sext i32 %60 to i64
  %62 = getelementptr inbounds [1000 x i8], [1000 x i8]* %9, i64 0, i64 %61
  %63 = load i8, i8* %62, align 1
  %64 = sext i8 %63 to i32
  %65 = icmp ne i32 %64, 84
  br i1 %65, label %66, label %81

66:                                               ; preds = %59
  %67 = load i32, i32* %2, align 4
  %68 = sext i32 %67 to i64
  %69 = getelementptr inbounds [1000 x i8], [1000 x i8]* %9, i64 0, i64 %68
  %70 = load i8, i8* %69, align 1
  %71 = sext i8 %70 to i32
  %72 = icmp ne i32 %71, 71
  br i1 %72, label %73, label %81

73:                                               ; preds = %66
  %74 = load i32, i32* %2, align 4
  %75 = sext i32 %74 to i64
  %76 = getelementptr inbounds [1000 x i8], [1000 x i8]* %9, i64 0, i64 %75
  %77 = load i8, i8* %76, align 1
  %78 = sext i8 %77 to i32
  %79 = icmp ne i32 %78, 67
  br i1 %79, label %80, label %81

80:                                               ; preds = %73
  store i32 0, i32* %3, align 4
  br label %81

81:                                               ; preds = %80, %73, %66, %59, %52
  br label %82

82:                                               ; preds = %81
  %83 = load i32, i32* %2, align 4
  %84 = add nsw i32 %83, 1
  store i32 %84, i32* %2, align 4
  br label %18

85:                                               ; preds = %18
  %86 = load i32, i32* %3, align 4
  %87 = icmp eq i32 %86, 0
  br i1 %87, label %88, label %90

88:                                               ; preds = %85
  %89 = call i32 (i8*, ...) @printf(i8* getelementptr inbounds ([7 x i8], [7 x i8]* @.str.2, i64 0, i64 0))
  br label %132

90:                                               ; preds = %85
  %91 = load i32, i32* %3, align 4
  %92 = icmp ne i32 %91, 0
  br i1 %92, label %93, label %131

93:                                               ; preds = %90
  store i32 0, i32* %2, align 4
  br label %94

94:                                               ; preds = %115, %93
  %95 = load i32, i32* %2, align 4
  %96 = sitofp i32 %95 to double
  %97 = load double, double* %5, align 8
  %98 = fcmp olt double %96, %97
  br i1 %98, label %99, label %118

99:                                               ; preds = %94
  %100 = load i32, i32* %2, align 4
  %101 = sext i32 %100 to i64
  %102 = getelementptr inbounds [1000 x i8], [1000 x i8]* %8, i64 0, i64 %101
  %103 = load i8, i8* %102, align 1
  %104 = sext i8 %103 to i32
  %105 = load i32, i32* %2, align 4
  %106 = sext i32 %105 to i64
  %107 = getelementptr inbounds [1000 x i8], [1000 x i8]* %9, i64 0, i64 %106
  %108 = load i8, i8* %107, align 1
  %109 = sext i8 %108 to i32
  %110 = icmp eq i32 %104, %109
  br i1 %110, label %111, label %114

111:                                              ; preds = %99
  %112 = load double, double* %4, align 8
  %113 = fadd double %112, 1.000000e+00
  store double %113, double* %4, align 8
  br label %114

114:                                              ; preds = %111, %99
  br label %115

115:                                              ; preds = %114
  %116 = load i32, i32* %2, align 4
  %117 = add nsw i32 %116, 1
  store i32 %117, i32* %2, align 4
  br label %94

118:                                              ; preds = %94
  %119 = load double, double* %4, align 8
  %120 = load double, double* %5, align 8
  %121 = fdiv double %119, %120
  %122 = fmul double %121, 1.000000e+00
  store double %122, double* %6, align 8
  %123 = load double, double* %7, align 8
  %124 = load double, double* %6, align 8
  %125 = fcmp olt double %123, %124
  br i1 %125, label %126, label %128

126:                                              ; preds = %118
  %127 = call i32 (i8*, ...) @printf(i8* getelementptr inbounds ([5 x i8], [5 x i8]* @.str.3, i64 0, i64 0))
  br label %130

128:                                              ; preds = %118
  %129 = call i32 (i8*, ...) @printf(i8* getelementptr inbounds ([4 x i8], [4 x i8]* @.str.4, i64 0, i64 0))
  br label %130

130:                                              ; preds = %128, %126
  br label %131

131:                                              ; preds = %130, %90
  br label %132

132:                                              ; preds = %131, %88
  ret i32 0
}

declare dso_local i32 @__isoc99_scanf(i8*, ...) #1

; Function Attrs: nounwind readonly
declare dso_local i64 @strlen(i8*) #2

declare dso_local i32 @printf(i8*, ...) #1


!llvm.module.flags = !{!0}
!llvm.ident = !{!1}

!0 = !{i32 1, !"wchar_size", i32 4}
!1 = !{!"clang version 10.0.0-4ubuntu1 "}
